; Function Attrs: mustprogress nofree norecurse nosync nounwind willreturn memory(argmem: read) uwtable
define noundef range(i32 -2147483647, -2147483648) i32 @_ZN5ZXing6QRCode20TerminatorBitsLengthERKNS0_7VersionE(ptr noundef nonnull readonly align 8 captures(none) dereferenceable(120) %0) local_unnamed_addr #5 {
  %2 = getelementptr inbounds nuw i8, ptr %0, i64 116
  %3 = load i32, ptr %2, align 4, !tbaa !33
  %4 = icmp eq i32 %3, 2
  br i1 %4, label %5, label %9

5:                                                ; preds = %1
  %6 = load i32, ptr %0, align 8, !tbaa !23
  %7 = shl nsw i32 %6, 1
  %8 = or disjoint i32 %7, 1
  br label %12

9:                                                ; preds = %1
  %10 = icmp eq i32 %3, 3
  %11 = select i1 %10, i32 3, i32 4
  br label %12

12:                                               ; preds = %9, %5
  %13 = phi i32 [ %8, %5 ], [ %11, %9 ]
  ret i32 %13
}